target datalayout = "e-m:e-p270:32:32-p271:32:32-p272:64:64-i64:64-i128:128-f80:128-n8:16:32:64-S128"
target triple = "x86_64-pc-linux-gnu"

%struct._connParams = type { ptr, ptr, ptr, ptr, i32, ptr }
%struct._restoreOptions = type { i32, i32, i32, i32, i32, i32, ptr, ptr, i32, i32, i32, i32, i32, i32, i32, i32, i32, i32, ptr, i32, i32, i32, ptr, i32, i32, ptr, i32, ptr, i32, i32, i32, i32, i32, %struct.SimpleStringList, %struct.SimpleStringList, %struct.SimpleStringList, %struct.SimpleStringList, %struct.SimpleStringList, %struct.SimpleStringList, i32, %struct._connParams, i32, i32, %struct.pg_compress_specification, i32, i8, i32, ptr, i32, i32, i32, i8, i8 }
%struct.SimpleStringList = type { ptr, ptr }
%struct.pg_compress_specification = type { i32, i32, i32, i32, i8, ptr }
%struct._archiveHandle = type { %struct.Archive, i32, ptr, ptr, i64, i64, i32, %struct.sqlparseInfo, i64, i32, ptr, i64, i64, i64, ptr, ptr, ptr, ptr, ptr, ptr, ptr, ptr, ptr, ptr, ptr, ptr, ptr, ptr, ptr, ptr, ptr, ptr, ptr, ptr, ptr, ptr, ptr, ptr, ptr, ptr, ptr, ptr, ptr, ptr, i32, i32, i8, i32, i8, i32, ptr, ptr, ptr, ptr, i32, i32, ptr, ptr, ptr, %struct.pg_compress_specification, i8, i32, i32, ptr, ptr, ptr, ptr, ptr, i32, ptr, i64, i64, i32, i32, i32, i32, ptr, ptr }
%struct.Archive = type { ptr, ptr, i32, ptr, i32, i8, i32, i32, i32, ptr, i32, i8, ptr, ptr, i8, i32, ptr }
%struct.sqlparseInfo = type { i32, i8, ptr }
%struct._tocEntry = type { ptr, ptr, %struct.CatalogId, i32, i32, i8, ptr, ptr, ptr, ptr, i8, ptr, ptr, ptr, ptr, ptr, ptr, i32, ptr, ptr, ptr, i64, i32, i8, ptr, ptr, i32, ptr, i32, ptr, i32 }
%struct.CatalogId = type { i32, i32 }

@.str.1 = private unnamed_addr constant [43 x i8] c"archive items not in correct section order\00", align 1
@.str.2 = private unnamed_addr constant [27 x i8] c"unexpected section code %d\00", align 1

; Function Attrs: nounwind uwtable
define dso_local void @ProcessArchiveRestoreOptions(ptr noundef %0) #0 {
  %2 = alloca ptr, align 8
  %3 = alloca ptr, align 8
  %4 = alloca ptr, align 8
  %5 = alloca ptr, align 8
  %6 = alloca i32, align 4
  store ptr %0, ptr %2, align 8
  call void @llvm.lifetime.start.p0(i64 8, ptr %3) #11
  %7 = load ptr, ptr %2, align 8
  store ptr %7, ptr %3, align 8
  call void @llvm.lifetime.start.p0(i64 8, ptr %4) #11
  %8 = load ptr, ptr %3, align 8
  %9 = getelementptr inbounds nuw %struct._archiveHandle, ptr %8, i32 0, i32 0
  %10 = getelementptr inbounds nuw %struct.Archive, ptr %9, i32 0, i32 1
  %11 = load ptr, ptr %10, align 8
  store ptr %11, ptr %4, align 8
  call void @llvm.lifetime.start.p0(i64 8, ptr %5) #11
  call void @llvm.lifetime.start.p0(i64 4, ptr %6) #11
  store i32 2, ptr %6, align 4
  %12 = load ptr, ptr %3, align 8
  %13 = getelementptr inbounds nuw %struct._archiveHandle, ptr %12, i32 0, i32 53
  %14 = load ptr, ptr %13, align 8
  %15 = getelementptr inbounds nuw %struct._tocEntry, ptr %14, i32 0, i32 1
  %16 = load ptr, ptr %15, align 8
  store ptr %16, ptr %5, align 8
  br label %17

17:                                               ; preds = %66, %1
  %18 = load ptr, ptr %5, align 8
  %19 = load ptr, ptr %3, align 8
  %20 = getelementptr inbounds nuw %struct._archiveHandle, ptr %19, i32 0, i32 53
  %21 = load ptr, ptr %20, align 8
  %22 = icmp ne ptr %18, %21
  br i1 %22, label %23, label %70

23:                                               ; preds = %17
  %24 = load ptr, ptr %3, align 8
  %25 = getelementptr inbounds nuw %struct._archiveHandle, ptr %24, i32 0, i32 62
  %26 = load i32, ptr %25, align 8
  %27 = icmp ne i32 %26, 2
  br i1 %27, label %28, label %50

28:                                               ; preds = %23
  %29 = load ptr, ptr %5, align 8
  %30 = getelementptr inbounds nuw %struct._tocEntry, ptr %29, i32 0, i32 4
  %31 = load i32, ptr %30, align 4
  switch i32 %31, label %42 [
    i32 1, label %49
    i32 2, label %32
    i32 3, label %37
    i32 4, label %49
  ]

32:                                               ; preds = %28
  %33 = load i32, ptr %6, align 4
  %34 = icmp ne i32 %33, 2
  br i1 %34, label %35, label %36

35:                                               ; preds = %32
  call void (i32, i32, ptr, ...) @pg_log_generic(i32 noundef 3, i32 noundef 0, ptr noundef @.str.1)
  br label %36

36:                                               ; preds = %35, %32
  br label %49

37:                                               ; preds = %28
  %38 = load i32, ptr %6, align 4
  %39 = icmp eq i32 %38, 4
  br i1 %39, label %40, label %41

40:                                               ; preds = %37
  call void (i32, i32, ptr, ...) @pg_log_generic(i32 noundef 3, i32 noundef 0, ptr noundef @.str.1)
  br label %41

41:                                               ; preds = %40, %37
  br label %49

42:                                               ; preds = %28
  br label %43

43:                                               ; preds = %42
  %44 = load ptr, ptr %5, align 8
  %45 = getelementptr inbounds nuw %struct._tocEntry, ptr %44, i32 0, i32 4
  %46 = load i32, ptr %45, align 4
  call void (i32, i32, ptr, ...) @pg_log_generic(i32 noundef 4, i32 noundef 0, ptr noundef @.str.2, i32 noundef %46)
  call void @exit_nicely(i32 noundef 1) #12
  unreachable

47:                                               ; No predecessors!
  br label %48

48:                                               ; preds = %47
  br label %49

49:                                               ; preds = %48, %28, %41, %36, %28
  br label %50

50:                                               ; preds = %49, %23
  %51 = load ptr, ptr %5, align 8
  %52 = getelementptr inbounds nuw %struct._tocEntry, ptr %51, i32 0, i32 4
  %53 = load i32, ptr %52, align 4
  %54 = icmp ne i32 %53, 1
  br i1 %54, label %55, label %59

55:                                               ; preds = %50
  %56 = load ptr, ptr %5, align 8
  %57 = getelementptr inbounds nuw %struct._tocEntry, ptr %56, i32 0, i32 4
  %58 = load i32, ptr %57, align 4
  store i32 %58, ptr %6, align 4
  br label %59

59:                                               ; preds = %55, %50
  %60 = load ptr, ptr %5, align 8
  %61 = load i32, ptr %6, align 4
  %62 = load ptr, ptr %3, align 8
  %63 = call i32 @_tocEntryRequired(ptr noundef %60, i32 noundef %61, ptr noundef %62)
  %64 = load ptr, ptr %5, align 8
  %65 = getelementptr inbounds nuw %struct._tocEntry, ptr %64, i32 0, i32 22
  store i32 %63, ptr %65, align 8
  br label %66

66:                                               ; preds = %59
  %67 = load ptr, ptr %5, align 8
  %68 = getelementptr inbounds nuw %struct._tocEntry, ptr %67, i32 0, i32 1
  %69 = load ptr, ptr %68, align 8
  store ptr %69, ptr %5, align 8
  br label %17, !llvm.loop !6

70:                                               ; preds = %17
  %71 = load ptr, ptr %4, align 8
  %72 = getelementptr inbounds nuw %struct._restoreOptions, ptr %71, i32 0, i32 17
  %73 = load i32, ptr %72, align 4
  %74 = icmp ne i32 %73, 0
  br i1 %74, label %75, label %77

75:                                               ; preds = %70
  %76 = load ptr, ptr %4, align 8
  call void @StrictNamesCheck(ptr noundef %76)
  br label %77

77:                                               ; preds = %75, %70
  call void @llvm.lifetime.end.p0(i64 4, ptr %6) #11
  call void @llvm.lifetime.end.p0(i64 8, ptr %5) #11
  call void @llvm.lifetime.end.p0(i64 8, ptr %4) #11
  call void @llvm.lifetime.end.p0(i64 8, ptr %3) #11
  ret void
}