; Function Attrs: nounwind uwtable
define dso_local void @ProcessArchiveRestoreOptions(ptr noundef captures(none) %0) local_unnamed_addr #0 {
  %2 = getelementptr inbounds nuw i8, ptr %0, i64 8
  %3 = load ptr, ptr %2, align 8
  %4 = getelementptr inbounds nuw i8, ptr %0, i64 504
  %5 = load ptr, ptr %4, align 8
  %.018.in24 = getelementptr inbounds nuw i8, ptr %5, i64 8
  %.01825 = load ptr, ptr %.018.in24, align 8
  %.not26 = icmp eq ptr %.01825, %5
  br i1 %.not26, label %._crit_edge, label %.lr.ph

.lr.ph:                                           ; preds = %1
  %6 = getelementptr inbounds nuw i8, ptr %0, i64 584
  br label %7

7:                                                ; preds = %.lr.ph, %16
  %.01828 = phi ptr [ %.01825, %.lr.ph ], [ %.018, %16 ]
  %.027 = phi i32 [ 2, %.lr.ph ], [ %spec.select, %16 ]
  %8 = load i32, ptr %6, align 8
  %.not21 = icmp eq i32 %8, 2
  br i1 %.not21, label %16, label %9

9:                                                ; preds = %7
  %10 = getelementptr inbounds nuw i8, ptr %.01828, i64 28
  %11 = load i32, ptr %10, align 4
  switch i32 %11, label %15 [
    i32 1, label %16
    i32 2, label %12
    i32 3, label %13
    i32 4, label %16
  ]

12:                                               ; preds = %9
  %.not22 = icmp eq i32 %.027, 2
  br i1 %.not22, label %16, label %.sink.split

13:                                               ; preds = %9
  %14 = icmp eq i32 %.027, 4
  br i1 %14, label %.sink.split, label %16

15:                                               ; preds = %9
  tail call void (i32, i32, ptr, ...) @pg_log_generic(i32 noundef 4, i32 noundef 0, ptr noundef nonnull @.str.2, i32 noundef %11) #22
  tail call void @exit_nicely(i32 noundef 1) #23
  unreachable

.sink.split:                                      ; preds = %13, %12
  tail call void (i32, i32, ptr, ...) @pg_log_generic(i32 noundef 3, i32 noundef 0, ptr noundef nonnull @.str.1) #22
  br label %16

16:                                               ; preds = %.sink.split, %9, %9, %12, %13, %7
  %17 = getelementptr inbounds nuw i8, ptr %.01828, i64 28
  %18 = load i32, ptr %17, align 4
  %.not23 = icmp eq i32 %18, 1
  %spec.select = select i1 %.not23, i32 %.027, i32 %18
  %19 = tail call fastcc i32 @_tocEntryRequired(ptr noundef %.01828, i32 noundef %spec.select, ptr noundef nonnull %0)
  %20 = getelementptr inbounds nuw i8, ptr %.01828, i64 168
  store i32 %19, ptr %20, align 8
  %.018.in = getelementptr inbounds nuw i8, ptr %.01828, i64 8
  %.018 = load ptr, ptr %.018.in, align 8
  %21 = load ptr, ptr %4, align 8
  %.not = icmp eq ptr %.018, %21
  br i1 %.not, label %._crit_edge, label %7, !llvm.loop !7

._crit_edge:                                      ; preds = %16, %1
  %22 = getelementptr inbounds nuw i8, ptr %3, i64 76
  %23 = load i32, ptr %22, align 4
  %.not20 = icmp eq i32 %23, 0
  br i1 %.not20, label %25, label %24

24:                                               ; preds = %._crit_edge
  tail call fastcc void @StrictNamesCheck(ptr noundef nonnull %3)
  br label %25

25:                                               ; preds = %24, %._crit_edge
  ret void
}